target datalayout = "e-m:e-p270:32:32-p271:32:32-p272:64:64-i64:64-i128:128-f80:128-n8:16:32:64-S128"
target triple = "x86_64-pc-linux-gnu"

%class.MemRegion = type { ptr, i64 }
%class.CollectedHeap = type { ptr, ptr, i64, i64, %class.SoftRefPolicy, %class.MemRegion, i8, i64, i32, i32, i32, i32, ptr, ptr }
%class.SoftRefPolicy = type { i8, i8 }
%class.VM_GC_Operation = type <{ %class.VM_GC_Sync_Operation, i32, i32, i8, i8, [2 x i8], i32, i8, [7 x i8] }>
%class.VM_GC_Sync_Operation = type { %class.VM_Operation }
%class.VM_Operation = type { ptr, ptr }

@_ZN8Universe14_collectedHeapE = external global ptr, align 8
@_ZN8GCLocker9_needs_gcE = external global i8, align 1
@_ZN8GCLocker15_jni_lock_countE = external global i32, align 4

; Function Attrs: mustprogress nounwind uwtable
define linkonce_odr hidden void @_ZN8GCLocker21verify_critical_countEv() #1 comdat align 2 {
  ret void
}

; Function Attrs: mustprogress nounwind uwtable
define linkonce_odr hidden noundef zeroext i1 @_ZN8GCLocker18is_active_internalEv() #1 comdat align 2 {
  call void @_ZN8GCLocker21verify_critical_countEv()
  %1 = load volatile i32, ptr @_ZN8GCLocker15_jni_lock_countE, align 4
  %2 = icmp sgt i32 %1, 0
  ret i1 %2
}

; Function Attrs: mustprogress nounwind uwtable
define linkonce_odr hidden noundef zeroext i1 @_ZN8GCLocker8needs_gcEv() #1 comdat align 2 {
  %1 = load volatile i8, ptr @_ZN8GCLocker9_needs_gcE, align 1
  %2 = trunc i8 %1 to i1
  ret i1 %2
}

; Function Attrs: mustprogress nounwind uwtable
define linkonce_odr hidden noundef zeroext i1 @_ZN8GCLocker22is_active_and_needs_gcEv() #1 comdat align 2 {
  %1 = call noundef zeroext i1 @_ZN8GCLocker8needs_gcEv()
  br i1 %1, label %2, label %4

2:                                                ; preds = %0
  %3 = call noundef zeroext i1 @_ZN8GCLocker18is_active_internalEv()
  br label %4

4:                                                ; preds = %2, %0
  %5 = phi i1 [ false, %0 ], [ %3, %2 ]
  ret i1 %5
}

; Function Attrs: mustprogress nounwind uwtable
define linkonce_odr hidden noundef i32 @_ZNK13CollectedHeap22total_full_collectionsEv(ptr noundef nonnull align 8 dereferenceable(104) %0) #1 comdat align 2 {
  %2 = alloca ptr, align 8
  store ptr %0, ptr %2, align 8
  %3 = load ptr, ptr %2, align 8
  %4 = getelementptr inbounds %class.CollectedHeap, ptr %3, i32 0, i32 9
  %5 = load i32, ptr %4, align 4
  ret i32 %5
}

; Function Attrs: mustprogress nounwind uwtable
define linkonce_odr hidden noundef i32 @_ZNK13CollectedHeap17total_collectionsEv(ptr noundef nonnull align 8 dereferenceable(104) %0) #1 comdat align 2 {
  %2 = alloca ptr, align 8
  store ptr %0, ptr %2, align 8
  %3 = load ptr, ptr %2, align 8
  %4 = getelementptr inbounds %class.CollectedHeap, ptr %3, i32 0, i32 8
  %5 = load i32, ptr %4, align 8
  ret i32 %5
}

; Function Attrs: mustprogress nounwind uwtable
define linkonce_odr hidden noundef ptr @_ZN8Universe4heapEv() #1 comdat align 2 {
  %1 = load ptr, ptr @_ZN8Universe14_collectedHeapE, align 8
  ret ptr %1
}

; Function Attrs: mustprogress nounwind uwtable
define hidden noundef zeroext i1 @_ZNK15VM_GC_Operation14skip_operationEv(ptr noundef nonnull align 8 dereferenceable(33) %0) unnamed_addr #1 align 2 {
  %2 = alloca ptr, align 8
  %3 = alloca i8, align 1
  store ptr %0, ptr %2, align 8
  %4 = load ptr, ptr %2, align 8
  %5 = getelementptr inbounds %class.VM_GC_Operation, ptr %4, i32 0, i32 1
  %6 = load i32, ptr %5, align 8
  %7 = call noundef ptr @_ZN8Universe4heapEv()
  %8 = call noundef i32 @_ZNK13CollectedHeap17total_collectionsEv(ptr noundef nonnull align 8 dereferenceable(104) %7)
  %9 = icmp ne i32 %6, %8
  %10 = zext i1 %9 to i8
  store i8 %10, ptr %3, align 1
  %11 = getelementptr inbounds %class.VM_GC_Operation, ptr %4, i32 0, i32 3
  %12 = load i8, ptr %11, align 8
  %13 = trunc i8 %12 to i1
  br i1 %13, label %14, label %24

14:                                               ; preds = %1
  %15 = load i8, ptr %3, align 1
  %16 = trunc i8 %15 to i1
  br i1 %16, label %17, label %24

17:                                               ; preds = %14
  %18 = getelementptr inbounds %class.VM_GC_Operation, ptr %4, i32 0, i32 2
  %19 = load i32, ptr %18, align 4
  %20 = call noundef ptr @_ZN8Universe4heapEv()
  %21 = call noundef i32 @_ZNK13CollectedHeap22total_full_collectionsEv(ptr noundef nonnull align 8 dereferenceable(104) %20)
  %22 = icmp ne i32 %19, %21
  %23 = zext i1 %22 to i8
  store i8 %23, ptr %3, align 1
  br label %24

24:                                               ; preds = %17, %14, %1
  %25 = load i8, ptr %3, align 1
  %26 = trunc i8 %25 to i1
  br i1 %26, label %36, label %27

27:                                               ; preds = %24
  %28 = call noundef zeroext i1 @_ZN8GCLocker22is_active_and_needs_gcEv()
  br i1 %28, label %29, label %36

29:                                               ; preds = %27
  %30 = call noundef ptr @_ZN8Universe4heapEv()
  %31 = load ptr, ptr %30, align 8
  %32 = getelementptr inbounds ptr, ptr %31, i64 14
  %33 = load ptr, ptr %32, align 8
  %34 = call noundef zeroext i1 %33(ptr noundef nonnull align 8 dereferenceable(104) %30)
  %35 = zext i1 %34 to i8
  store i8 %35, ptr %3, align 1
  br label %36

36:                                               ; preds = %29, %27, %24
  %37 = load i8, ptr %3, align 1
  %38 = trunc i8 %37 to i1
  ret i1 %38
}