; Function Attrs: mustprogress nounwind uwtable
define hidden noundef zeroext i1 @_ZNK15VM_GC_Operation14skip_operationEv(ptr nocapture noundef nonnull readonly align 8 dereferenceable(33) %0) unnamed_addr #0 align 2 {
  %2 = getelementptr inbounds i8, ptr %0, i64 16
  %3 = load i32, ptr %2, align 8
  %4 = load ptr, ptr @_ZN8Universe14_collectedHeapE, align 8
  %5 = getelementptr inbounds i8, ptr %4, i64 72
  %6 = load i32, ptr %5, align 8
  %.not5 = icmp ne i32 %3, %6
  %7 = getelementptr inbounds i8, ptr %0, i64 24
  %8 = load i8, ptr %7, align 8
  %9 = trunc i8 %8 to i1
  %brmerge.not = select i1 %9, i1 %.not5, i1 false
  br i1 %brmerge.not, label %10, label %15

10:                                               ; preds = %1
  %11 = getelementptr inbounds i8, ptr %0, i64 20
  %12 = load i32, ptr %11, align 4
  %13 = getelementptr inbounds i8, ptr %4, i64 76
  %14 = load i32, ptr %13, align 4
  %.not = icmp eq i32 %12, %14
  br i1 %.not, label %16, label %_ZN8GCLocker22is_active_and_needs_gcEv.exit.thread

15:                                               ; preds = %1
  br i1 %.not5, label %_ZN8GCLocker22is_active_and_needs_gcEv.exit.thread, label %16

16:                                               ; preds = %10, %15
  %17 = load volatile i8, ptr @_ZN8GCLocker9_needs_gcE, align 1
  %18 = trunc i8 %17 to i1
  br i1 %18, label %_ZN8GCLocker22is_active_and_needs_gcEv.exit, label %_ZN8GCLocker22is_active_and_needs_gcEv.exit.thread

_ZN8GCLocker22is_active_and_needs_gcEv.exit:      ; preds = %16
  %19 = load volatile i32, ptr @_ZN8GCLocker15_jni_lock_countE, align 4
  %20 = icmp sgt i32 %19, 0
  br i1 %20, label %21, label %_ZN8GCLocker22is_active_and_needs_gcEv.exit.thread

21:                                               ; preds = %_ZN8GCLocker22is_active_and_needs_gcEv.exit
  %22 = load ptr, ptr %4, align 8
  %23 = getelementptr inbounds i8, ptr %22, i64 112
  %24 = load ptr, ptr %23, align 8
  %25 = tail call noundef zeroext i1 %24(ptr noundef nonnull align 8 dereferenceable(104) %4) #12
  br label %_ZN8GCLocker22is_active_and_needs_gcEv.exit.thread

_ZN8GCLocker22is_active_and_needs_gcEv.exit.thread: ; preds = %16, %10, %21, %_ZN8GCLocker22is_active_and_needs_gcEv.exit, %15
  %.1.in = phi i1 [ true, %15 ], [ %25, %21 ], [ false, %_ZN8GCLocker22is_active_and_needs_gcEv.exit ], [ true, %10 ], [ false, %16 ]
  ret i1 %.1.in
}